; Function Attrs: nounwind uwtable
define i32 @EVP_PKEY_CTX_set_ecdh_kdf_outlen(ptr noundef %0, i32 noundef %1) local_unnamed_addr #0 {
  %3 = alloca i64, align 8
  %4 = alloca [2 x %struct.ossl_param_st], align 16
  %5 = alloca %struct.ossl_param_st, align 8
  call void @llvm.lifetime.start.p0(i64 8, ptr nonnull %3) #4
  %6 = sext i32 %1 to i64
  store i64 %6, ptr %3, align 8, !tbaa !27
  call void @llvm.lifetime.start.p0(i64 80, ptr nonnull %4) #4
  %7 = icmp eq ptr %0, null
  br i1 %7, label %11, label %8

8:                                                ; preds = %2
  %9 = load i32, ptr %0, align 8, !tbaa !7
  %10 = and i32 %9, 2048
  %.not.i = icmp eq i32 %10, 0
  br i1 %.not.i, label %11, label %12

11:                                               ; preds = %8, %2
  tail call void @ERR_new() #4
  tail call void @ERR_set_debug(ptr noundef nonnull @.str.1, i32 noundef 27, ptr noundef nonnull @__func__.evp_pkey_ctx_getset_ecdh_param_checks) #4
  tail call void (i32, i32, ptr, ...) @ERR_set_error(i32 noundef 6, i32 noundef 147, ptr noundef null) #4
  br label %evp_pkey_ctx_getset_ecdh_param_checks.exit.thread

12:                                               ; preds = %8
  %13 = getelementptr inbounds nuw i8, ptr %0, i64 32
  %14 = load ptr, ptr %13, align 8, !tbaa !20
  %15 = icmp eq ptr %14, null
  br i1 %15, label %16, label %evp_pkey_ctx_getset_ecdh_param_checks.exit

16:                                               ; preds = %12
  %17 = getelementptr inbounds nuw i8, ptr %0, i64 120
  %18 = load ptr, ptr %17, align 8, !tbaa !21
  %.not7.i = icmp eq ptr %18, null
  br i1 %.not7.i, label %evp_pkey_ctx_getset_ecdh_param_checks.exit, label %19

19:                                               ; preds = %16
  %20 = load i32, ptr %18, align 8, !tbaa !22
  %.not8.i = icmp eq i32 %20, 408
  br i1 %.not8.i, label %evp_pkey_ctx_getset_ecdh_param_checks.exit, label %evp_pkey_ctx_getset_ecdh_param_checks.exit.thread

evp_pkey_ctx_getset_ecdh_param_checks.exit:       ; preds = %19, %16, %12
  %21 = icmp slt i32 %1, 1
  br i1 %21, label %evp_pkey_ctx_getset_ecdh_param_checks.exit.thread, label %22

22:                                               ; preds = %evp_pkey_ctx_getset_ecdh_param_checks.exit
  %23 = getelementptr inbounds nuw i8, ptr %4, i64 40
  call void @OSSL_PARAM_construct_size_t(ptr dead_on_unwind nonnull writable sret(%struct.ossl_param_st) align 8 %4, ptr noundef nonnull @.str.2, ptr noundef nonnull %3) #4
  call void @llvm.lifetime.start.p0(i64 40, ptr nonnull %5) #4
  call void @OSSL_PARAM_construct_end(ptr dead_on_unwind nonnull writable sret(%struct.ossl_param_st) align 8 %5) #4
  call void @llvm.memcpy.p0.p0.i64(ptr noundef nonnull align 8 dereferenceable(40) %23, ptr noundef nonnull align 8 dereferenceable(40) %5, i64 40, i1 false), !tbaa.struct !24
  call void @llvm.lifetime.end.p0(i64 40, ptr nonnull %5) #4
  %24 = call i32 @evp_pkey_ctx_set_params_strict(ptr noundef nonnull %0, ptr noundef nonnull %4) #4
  %25 = icmp eq i32 %24, -2
  br i1 %25, label %26, label %evp_pkey_ctx_getset_ecdh_param_checks.exit.thread

26:                                               ; preds = %22
  call void @ERR_new() #4
  call void @ERR_set_debug(ptr noundef nonnull @.str.1, i32 noundef 172, ptr noundef nonnull @__func__.EVP_PKEY_CTX_set_ecdh_kdf_outlen) #4
  call void (i32, i32, ptr, ...) @ERR_set_error(i32 noundef 6, i32 noundef 147, ptr noundef null) #4
  br label %evp_pkey_ctx_getset_ecdh_param_checks.exit.thread

evp_pkey_ctx_getset_ecdh_param_checks.exit.thread: ; preds = %19, %11, %22, %26, %evp_pkey_ctx_getset_ecdh_param_checks.exit
  %.0 = phi i32 [ -2, %evp_pkey_ctx_getset_ecdh_param_checks.exit ], [ -2, %26 ], [ %24, %22 ], [ -1, %19 ], [ -2, %11 ]
  call void @llvm.lifetime.end.p0(i64 80, ptr nonnull %4) #4
  call void @llvm.lifetime.end.p0(i64 8, ptr nonnull %3) #4
  ret i32 %.0
}